; ModuleID = 'bench/duckdb/original/src_backend_nodes_value.ll'
source_filename = "bench/duckdb/original/src_backend_nodes_value.ll"
target datalayout = "e-m:e-p270:32:32-p271:32:32-p272:64:64-i64:64-i128:128-f80:128-n8:16:32:64-S128"
target triple = "x86_64-pc-linux-gnu"

; Function Attrs: mustprogress uwtable
define hidden noundef ptr @_ZN17duckdb_libpgquery11makeIntegerEl(i64 noundef %0) local_unnamed_addr #0 {
  %2 = tail call noundef ptr @_ZN17duckdb_libpgquery7newNodeEmNS_9PGNodeTagE(i64 noundef 16, i32 noundef 215)
  store i32 216, ptr %2, align 8, !tbaa !3
  %3 = getelementptr inbounds nuw i8, ptr %2, i64 8
  store i64 %0, ptr %3, align 8, !tbaa !8
  ret ptr %2
}

declare noundef ptr @_ZN17duckdb_libpgquery7newNodeEmNS_9PGNodeTagE(i64 noundef, i32 noundef) local_unnamed_addr #1

; Function Attrs: mustprogress uwtable
define hidden noundef ptr @_ZN17duckdb_libpgquery9makeFloatEPc(ptr noundef %0) local_unnamed_addr #0 {
  %2 = tail call noundef ptr @_ZN17duckdb_libpgquery7newNodeEmNS_9PGNodeTagE(i64 noundef 16, i32 noundef 215)
  store i32 217, ptr %2, align 8, !tbaa !3
  %3 = getelementptr inbounds nuw i8, ptr %2, i64 8
  store ptr %0, ptr %3, align 8, !tbaa !8
  ret ptr %2
}

; Function Attrs: mustprogress uwtable
define hidden noundef ptr @_ZN17duckdb_libpgquery10makeStringEPKc(ptr noundef %0) local_unnamed_addr #0 {
  %2 = tail call noundef ptr @_ZN17duckdb_libpgquery7newNodeEmNS_9PGNodeTagE(i64 noundef 16, i32 noundef 215)
  store i32 218, ptr %2, align 8, !tbaa !3
  %3 = getelementptr inbounds nuw i8, ptr %2, i64 8
  store ptr %0, ptr %3, align 8, !tbaa !8
  ret ptr %2
}


!llvm.module.flags = !{!0, !1, !2}

!0 = !{i32 1, !"wchar_size", i32 4}
!1 = !{i32 8, !"PIC Level", i32 2}
!2 = !{i32 7, !"uwtable", i32 2}
!3 = !{!4, !5, i64 0}
!4 = !{!"_ZTSN17duckdb_libpgquery7PGValueE", !5, i64 0, !6, i64 8}
!5 = !{!"_ZTSN17duckdb_libpgquery9PGNodeTagE", !6, i64 0}
!6 = !{!"omnipotent char", !7, i64 0}
!7 = !{!"Simple C++ TBAA"}
!8 = !{!6, !6, i64 0}
